target datalayout = "e-m:e-p270:32:32-p271:32:32-p272:64:64-i64:64-i128:128-f80:128-n8:16:32:64-S128"
target triple = "x86_64-unknown-linux-gnu"

%class.anon.51 = type { ptr }

; Function Attrs: mustprogress uwtable
define internal noundef zeroext i1 @"_ZZN8facebook5velox6memory15MemoryReclaimer5abortEPNS1_10MemoryPoolERKNSt15__exception_ptr13exception_ptrEENK3$_0clES4_"(ptr noundef nonnull align 8 dereferenceable(8) %this, ptr noundef %child) #0 align 2 {
entry:
  %this.addr = alloca ptr, align 8
  %child.addr = alloca ptr, align 8
  %reclaimer = alloca ptr, align 8
  store ptr %this, ptr %this.addr, align 8
  store ptr %child, ptr %child.addr, align 8
  %this1 = load ptr, ptr %this.addr, align 8
  %0 = load ptr, ptr %child.addr, align 8
  %vtable = load ptr, ptr %0, align 8
  %vfn = getelementptr inbounds ptr, ptr %vtable, i64 38
  %1 = load ptr, ptr %vfn, align 8
  %call = call noundef ptr %1(ptr noundef nonnull align 8 dereferenceable(168) %0)
  store ptr %call, ptr %reclaimer, align 8
  %2 = load ptr, ptr %reclaimer, align 8
  %cmp = icmp ne ptr %2, null
  br i1 %cmp, label %if.then, label %if.end

if.then:                                          ; preds = %entry
  %3 = load ptr, ptr %reclaimer, align 8
  %4 = load ptr, ptr %child.addr, align 8
  %5 = getelementptr inbounds %class.anon.51, ptr %this1, i32 0, i32 0
  %6 = load ptr, ptr %5, align 8
  %vtable2 = load ptr, ptr %3, align 8
  %vfn3 = getelementptr inbounds ptr, ptr %vtable2, i64 6
  %7 = load ptr, ptr %vfn3, align 8
  call void %7(ptr noundef nonnull align 8 dereferenceable(8) %3, ptr noundef %4, ptr noundef nonnull align 8 dereferenceable(8) %6)
  br label %if.end

if.end:                                           ; preds = %if.then, %entry
  ret i1 true
}

; Function Attrs: mustprogress nounwind uwtable
define linkonce_odr noundef ptr @_ZNKSt9_Any_data9_M_accessEv(ptr noundef nonnull align 8 dereferenceable(16) %this) #2 comdat align 2 {
entry:
  %this.addr = alloca ptr, align 8
  store ptr %this, ptr %this.addr, align 8
  %this1 = load ptr, ptr %this.addr, align 8
  %arrayidx = getelementptr inbounds [16 x i8], ptr %this1, i64 0, i64 0
  ret ptr %arrayidx
}

; Function Attrs: mustprogress uwtable
define internal noundef zeroext i1 @"_ZSt13__invoke_implIbRZN8facebook5velox6memory15MemoryReclaimer5abortEPNS2_10MemoryPoolERKNSt15__exception_ptr13exception_ptrEE3$_0JS5_EET_St14__invoke_otherOT0_DpOT1_"(ptr noundef nonnull align 8 dereferenceable(8) %__f, ptr noundef nonnull align 8 dereferenceable(8) %__args) #0 {
entry:
  %__f.addr = alloca ptr, align 8
  %__args.addr = alloca ptr, align 8
  store ptr %__f, ptr %__f.addr, align 8
  store ptr %__args, ptr %__args.addr, align 8
  %0 = load ptr, ptr %__f.addr, align 8
  %1 = load ptr, ptr %__args.addr, align 8
  %2 = load ptr, ptr %1, align 8
  %call = call noundef zeroext i1 @"_ZZN8facebook5velox6memory15MemoryReclaimer5abortEPNS1_10MemoryPoolERKNSt15__exception_ptr13exception_ptrEENK3$_0clES4_"(ptr noundef nonnull align 8 dereferenceable(8) %0, ptr noundef %2)
  ret i1 %call
}

; Function Attrs: mustprogress nounwind uwtable
define internal noundef nonnull align 8 dereferenceable(8) ptr @"_ZNKSt9_Any_data9_M_accessIZN8facebook5velox6memory15MemoryReclaimer5abortEPNS3_10MemoryPoolERKNSt15__exception_ptr13exception_ptrEE3$_0EERKT_v"(ptr noundef nonnull align 8 dereferenceable(16) %this) #2 align 2 {
entry:
  %this.addr = alloca ptr, align 8
  store ptr %this, ptr %this.addr, align 8
  %this1 = load ptr, ptr %this.addr, align 8
  %call = call noundef ptr @_ZNKSt9_Any_data9_M_accessEv(ptr noundef nonnull align 8 dereferenceable(16) %this1) #9
  ret ptr %call
}

; Function Attrs: mustprogress uwtable
define internal noundef zeroext i1 @"_ZSt10__invoke_rIbRZN8facebook5velox6memory15MemoryReclaimer5abortEPNS2_10MemoryPoolERKNSt15__exception_ptr13exception_ptrEE3$_0JS5_EENSt9enable_ifIX16is_invocable_r_vIT_T0_DpT1_EESD_E4typeEOSE_DpOSF_"(ptr noundef nonnull align 8 dereferenceable(8) %__fn, ptr noundef nonnull align 8 dereferenceable(8) %__args) #0 {
entry:
  %__fn.addr = alloca ptr, align 8
  %__args.addr = alloca ptr, align 8
  store ptr %__fn, ptr %__fn.addr, align 8
  store ptr %__args, ptr %__args.addr, align 8
  %0 = load ptr, ptr %__fn.addr, align 8
  %1 = load ptr, ptr %__args.addr, align 8
  %call = call noundef zeroext i1 @"_ZSt13__invoke_implIbRZN8facebook5velox6memory15MemoryReclaimer5abortEPNS2_10MemoryPoolERKNSt15__exception_ptr13exception_ptrEE3$_0JS5_EET_St14__invoke_otherOT0_DpOT1_"(ptr noundef nonnull align 8 dereferenceable(8) %0, ptr noundef nonnull align 8 dereferenceable(8) %1)
  ret i1 %call
}

; Function Attrs: mustprogress nounwind uwtable
define internal noundef ptr @"_ZNSt14_Function_base13_Base_managerIZN8facebook5velox6memory15MemoryReclaimer5abortEPNS3_10MemoryPoolERKNSt15__exception_ptr13exception_ptrEE3$_0E14_M_get_pointerERKSt9_Any_data"(ptr noundef nonnull align 8 dereferenceable(16) %__source) #2 align 2 {
entry:
  %__source.addr = alloca ptr, align 8
  %__f = alloca ptr, align 8
  store ptr %__source, ptr %__source.addr, align 8
  %0 = load ptr, ptr %__source.addr, align 8
  %call = call noundef nonnull align 8 dereferenceable(8) ptr @"_ZNKSt9_Any_data9_M_accessIZN8facebook5velox6memory15MemoryReclaimer5abortEPNS3_10MemoryPoolERKNSt15__exception_ptr13exception_ptrEE3$_0EERKT_v"(ptr noundef nonnull align 8 dereferenceable(16) %0) #9
  store ptr %call, ptr %__f, align 8
  %1 = load ptr, ptr %__f, align 8
  ret ptr %1
}

; Function Attrs: mustprogress uwtable
define internal noundef zeroext i1 @"_ZNSt17_Function_handlerIFbPN8facebook5velox6memory10MemoryPoolEEZNS2_15MemoryReclaimer5abortES4_RKNSt15__exception_ptr13exception_ptrEE3$_0E9_M_invokeERKSt9_Any_dataOS4_"(ptr noundef nonnull align 8 dereferenceable(16) %__functor, ptr noundef nonnull align 8 dereferenceable(8) %__args) #0 align 2 {
entry:
  %__functor.addr = alloca ptr, align 8
  %__args.addr = alloca ptr, align 8
  store ptr %__functor, ptr %__functor.addr, align 8
  store ptr %__args, ptr %__args.addr, align 8
  %0 = load ptr, ptr %__functor.addr, align 8
  %call = call noundef ptr @"_ZNSt14_Function_base13_Base_managerIZN8facebook5velox6memory15MemoryReclaimer5abortEPNS3_10MemoryPoolERKNSt15__exception_ptr13exception_ptrEE3$_0E14_M_get_pointerERKSt9_Any_data"(ptr noundef nonnull align 8 dereferenceable(16) %0) #9
  %1 = load ptr, ptr %__args.addr, align 8
  %call1 = call noundef zeroext i1 @"_ZSt10__invoke_rIbRZN8facebook5velox6memory15MemoryReclaimer5abortEPNS2_10MemoryPoolERKNSt15__exception_ptr13exception_ptrEE3$_0JS5_EENSt9enable_ifIX16is_invocable_r_vIT_T0_DpT1_EESD_E4typeEOSE_DpOSF_"(ptr noundef nonnull align 8 dereferenceable(8) %call, ptr noundef nonnull align 8 dereferenceable(8) %1)
  ret i1 %call1
}