; Function Attrs: mustprogress uwtable
define internal noundef zeroext i1 @"_ZNSt17_Function_handlerIFbPN8facebook5velox6memory10MemoryPoolEEZNS2_15MemoryReclaimer5abortES4_RKNSt15__exception_ptr13exception_ptrEE3$_0E9_M_invokeERKSt9_Any_dataOS4_"(ptr nocapture noundef nonnull readonly align 8 dereferenceable(16) %__functor, ptr nocapture noundef nonnull readonly align 8 dereferenceable(8) %__args) #0 align 2 {
entry:
  %__args.val = load ptr, ptr %__args, align 8
  %vtable.i.i.i = load ptr, ptr %__args.val, align 8
  %vfn.i.i.i = getelementptr inbounds i8, ptr %vtable.i.i.i, i64 304
  %0 = load ptr, ptr %vfn.i.i.i, align 8
  %call.i.i.i = tail call noundef ptr %0(ptr noundef nonnull align 8 dereferenceable(168) %__args.val)
  %cmp.not.i.i.i = icmp eq ptr %call.i.i.i, null
  br i1 %cmp.not.i.i.i, label %"_ZSt10__invoke_rIbRZN8facebook5velox6memory15MemoryReclaimer5abortEPNS2_10MemoryPoolERKNSt15__exception_ptr13exception_ptrEE3$_0JS5_EENSt9enable_ifIX16is_invocable_r_vIT_T0_DpT1_EESD_E4typeEOSE_DpOSF_.exit", label %if.then.i.i.i

if.then.i.i.i:                                    ; preds = %entry
  %1 = load ptr, ptr %__functor, align 8
  %vtable2.i.i.i = load ptr, ptr %call.i.i.i, align 8
  %vfn3.i.i.i = getelementptr inbounds i8, ptr %vtable2.i.i.i, i64 48
  %2 = load ptr, ptr %vfn3.i.i.i, align 8
  tail call void %2(ptr noundef nonnull align 8 dereferenceable(8) %call.i.i.i, ptr noundef nonnull %__args.val, ptr noundef nonnull align 8 dereferenceable(8) %1)
  br label %"_ZSt10__invoke_rIbRZN8facebook5velox6memory15MemoryReclaimer5abortEPNS2_10MemoryPoolERKNSt15__exception_ptr13exception_ptrEE3$_0JS5_EENSt9enable_ifIX16is_invocable_r_vIT_T0_DpT1_EESD_E4typeEOSE_DpOSF_.exit"

"_ZSt10__invoke_rIbRZN8facebook5velox6memory15MemoryReclaimer5abortEPNS2_10MemoryPoolERKNSt15__exception_ptr13exception_ptrEE3$_0JS5_EENSt9enable_ifIX16is_invocable_r_vIT_T0_DpT1_EESD_E4typeEOSE_DpOSF_.exit": ; preds = %entry, %if.then.i.i.i
  ret i1 true
}